target datalayout = "e-m:e-p270:32:32-p271:32:32-p272:64:64-i64:64-i128:128-f80:128-n8:16:32:64-S128"
target triple = "x86_64-pc-linux-gnu"

%struct.VVCFrame = type { ptr, ptr, ptr, ptr, ptr, ptr, i32, i32, i32, %struct.VVCWindow, i32, i32, ptr, ptr, i16, i8, ptr }
%struct.VVCWindow = type { i16, i16, i16, i16 }
%struct.FrameProgress = type { [2 x i32], [2 x ptr], %union.pthread_mutex_t, %union.pthread_cond_t, i8, i8 }
%union.pthread_mutex_t = type { %struct.__pthread_mutex_s }
%struct.__pthread_mutex_s = type { i32, i32, i32, i32, i32, i16, i16, %struct.__pthread_internal_list }
%struct.__pthread_internal_list = type { ptr, ptr }
%union.pthread_cond_t = type { %struct.__pthread_cond_s }
%struct.__pthread_cond_s = type { %union.__atomic_wide_counter, %union.__atomic_wide_counter, [2 x i32], [2 x i32], i32, i32, [2 x i32] }
%union.__atomic_wide_counter = type { i64 }
%struct.VVCProgressListener = type { i32, i32, ptr, ptr }

; Function Attrs: nounwind uwtable
define internal void @add_listener(ptr noundef %0, ptr noundef %1) #0 {
  %3 = alloca ptr, align 8
  %4 = alloca ptr, align 8
  store ptr %0, ptr %3, align 8, !tbaa !255
  store ptr %1, ptr %4, align 8, !tbaa !249
  %5 = load ptr, ptr %3, align 8, !tbaa !255
  %6 = load ptr, ptr %5, align 8, !tbaa !249
  %7 = load ptr, ptr %4, align 8, !tbaa !249
  %8 = getelementptr inbounds nuw %struct.VVCProgressListener, ptr %7, i32 0, i32 3
  store ptr %6, ptr %8, align 8, !tbaa !253
  %9 = load ptr, ptr %4, align 8, !tbaa !249
  %10 = load ptr, ptr %3, align 8, !tbaa !255
  store ptr %9, ptr %10, align 8, !tbaa !249
  ret void
}

; Function Attrs: nounwind uwtable
define internal ptr @remove_listener(ptr noundef %0, ptr noundef %1) #0 {
  %3 = alloca ptr, align 8
  %4 = alloca ptr, align 8
  store ptr %0, ptr %3, align 8, !tbaa !255
  store ptr %1, ptr %4, align 8, !tbaa !249
  %5 = load ptr, ptr %4, align 8, !tbaa !249
  %6 = getelementptr inbounds nuw %struct.VVCProgressListener, ptr %5, i32 0, i32 3
  %7 = load ptr, ptr %6, align 8, !tbaa !253
  %8 = load ptr, ptr %3, align 8, !tbaa !255
  store ptr %7, ptr %8, align 8, !tbaa !249
  %9 = load ptr, ptr %4, align 8, !tbaa !249
  %10 = getelementptr inbounds nuw %struct.VVCProgressListener, ptr %9, i32 0, i32 3
  store ptr null, ptr %10, align 8, !tbaa !253
  %11 = load ptr, ptr %4, align 8, !tbaa !249
  ret ptr %11
}

; Function Attrs: nounwind uwtable
define internal i32 @is_progress_done(ptr noundef %0, ptr noundef %1) #0 {
  %3 = alloca ptr, align 8
  %4 = alloca ptr, align 8
  store ptr %0, ptr %3, align 8, !tbaa !248
  store ptr %1, ptr %4, align 8, !tbaa !249
  %5 = load ptr, ptr %3, align 8, !tbaa !248
  %6 = getelementptr inbounds nuw %struct.FrameProgress, ptr %5, i32 0, i32 0
  %7 = load ptr, ptr %4, align 8, !tbaa !249
  %8 = getelementptr inbounds nuw %struct.VVCProgressListener, ptr %7, i32 0, i32 0
  %9 = load i32, ptr %8, align 8, !tbaa !258
  %10 = zext i32 %9 to i64
  %11 = getelementptr inbounds nuw [2 x i32], ptr %6, i64 0, i64 %10
  %12 = load atomic i32, ptr %11 seq_cst, align 4, !tbaa !108
  %13 = load ptr, ptr %4, align 8, !tbaa !249
  %14 = getelementptr inbounds nuw %struct.VVCProgressListener, ptr %13, i32 0, i32 1
  %15 = load i32, ptr %14, align 4, !tbaa !259
  %16 = icmp sgt i32 %12, %15
  %17 = zext i1 %16 to i32
  ret i32 %17
}

; Function Attrs: nounwind uwtable
define internal ptr @get_done_listener(ptr noundef %0, i32 noundef %1) #0 {
  %3 = alloca ptr, align 8
  %4 = alloca i32, align 4
  %5 = alloca ptr, align 8
  %6 = alloca ptr, align 8
  %7 = alloca ptr, align 8
  store ptr %0, ptr %3, align 8, !tbaa !248
  store i32 %1, ptr %4, align 4, !tbaa !11
  call void @llvm.lifetime.start.p0(i64 8, ptr %5) #7
  store ptr null, ptr %5, align 8, !tbaa !249
  call void @llvm.lifetime.start.p0(i64 8, ptr %6) #7
  %8 = load ptr, ptr %3, align 8, !tbaa !248
  %9 = getelementptr inbounds nuw %struct.FrameProgress, ptr %8, i32 0, i32 1
  %10 = load i32, ptr %4, align 4, !tbaa !11
  %11 = zext i32 %10 to i64
  %12 = getelementptr inbounds nuw [2 x ptr], ptr %9, i64 0, i64 %11
  store ptr %12, ptr %6, align 8, !tbaa !255
  br label %13

13:                                               ; preds = %33, %2
  %14 = load ptr, ptr %6, align 8, !tbaa !255
  %15 = load ptr, ptr %14, align 8, !tbaa !249
  %16 = icmp ne ptr %15, null
  br i1 %16, label %17, label %34

17:                                               ; preds = %13
  %18 = load ptr, ptr %3, align 8, !tbaa !248
  %19 = load ptr, ptr %6, align 8, !tbaa !255
  %20 = load ptr, ptr %19, align 8, !tbaa !249
  %21 = call i32 @is_progress_done(ptr noundef %18, ptr noundef %20)
  %22 = icmp ne i32 %21, 0
  br i1 %22, label %23, label %29

23:                                               ; preds = %17
  call void @llvm.lifetime.start.p0(i64 8, ptr %7) #7
  %24 = load ptr, ptr %6, align 8, !tbaa !255
  %25 = load ptr, ptr %6, align 8, !tbaa !255
  %26 = load ptr, ptr %25, align 8, !tbaa !249
  %27 = call ptr @remove_listener(ptr noundef %24, ptr noundef %26)
  store ptr %27, ptr %7, align 8, !tbaa !249
  %28 = load ptr, ptr %7, align 8, !tbaa !249
  call void @add_listener(ptr noundef %5, ptr noundef %28)
  call void @llvm.lifetime.end.p0(i64 8, ptr %7) #7
  br label %33

29:                                               ; preds = %17
  %30 = load ptr, ptr %6, align 8, !tbaa !255
  %31 = load ptr, ptr %30, align 8, !tbaa !249
  %32 = getelementptr inbounds nuw %struct.VVCProgressListener, ptr %31, i32 0, i32 3
  store ptr %32, ptr %6, align 8, !tbaa !255
  br label %33

33:                                               ; preds = %29, %23
  br label %13, !llvm.loop !257

34:                                               ; preds = %13
  %35 = load ptr, ptr %5, align 8, !tbaa !249
  call void @llvm.lifetime.end.p0(i64 8, ptr %6) #7
  call void @llvm.lifetime.end.p0(i64 8, ptr %5) #7
  ret ptr %35
}

; Function Attrs: nounwind uwtable
define void @ff_vvc_report_progress(ptr noundef %0, i32 noundef %1, i32 noundef %2) #0 {
  %4 = alloca ptr, align 8
  %5 = alloca i32, align 4
  %6 = alloca i32, align 4
  %7 = alloca ptr, align 8
  %8 = alloca ptr, align 8
  store ptr %0, ptr %4, align 8, !tbaa !9
  store i32 %1, ptr %5, align 4, !tbaa !11
  store i32 %2, ptr %6, align 4, !tbaa !11
  call void @llvm.lifetime.start.p0(i64 8, ptr %7) #7
  %9 = load ptr, ptr %4, align 8, !tbaa !9
  %10 = getelementptr inbounds nuw %struct.VVCFrame, ptr %9, i32 0, i32 13
  %11 = load ptr, ptr %10, align 8, !tbaa !149
  store ptr %11, ptr %7, align 8, !tbaa !248
  call void @llvm.lifetime.start.p0(i64 8, ptr %8) #7
  store ptr null, ptr %8, align 8, !tbaa !249
  %12 = load ptr, ptr %7, align 8, !tbaa !248
  %13 = getelementptr inbounds nuw %struct.FrameProgress, ptr %12, i32 0, i32 2
  %14 = call i32 @pthread_mutex_lock(ptr noundef %13) #7
  %15 = load ptr, ptr %7, align 8, !tbaa !248
  %16 = getelementptr inbounds nuw %struct.FrameProgress, ptr %15, i32 0, i32 0
  %17 = load i32, ptr %5, align 4, !tbaa !11
  %18 = zext i32 %17 to i64
  %19 = getelementptr inbounds nuw [2 x i32], ptr %16, i64 0, i64 %18
  %20 = load atomic i32, ptr %19 seq_cst, align 4, !tbaa !108
  %21 = load i32, ptr %6, align 4, !tbaa !11
  %22 = icmp slt i32 %20, %21
  br i1 %22, label %23, label %36

23:                                               ; preds = %3
  %24 = load i32, ptr %6, align 4, !tbaa !11
  %25 = load ptr, ptr %7, align 8, !tbaa !248
  %26 = getelementptr inbounds nuw %struct.FrameProgress, ptr %25, i32 0, i32 0
  %27 = load i32, ptr %5, align 4, !tbaa !11
  %28 = zext i32 %27 to i64
  %29 = getelementptr inbounds nuw [2 x i32], ptr %26, i64 0, i64 %28
  store atomic i32 %24, ptr %29 seq_cst, align 4, !tbaa !108
  %30 = load ptr, ptr %7, align 8, !tbaa !248
  %31 = load i32, ptr %5, align 4, !tbaa !11
  %32 = call ptr @get_done_listener(ptr noundef %30, i32 noundef %31)
  store ptr %32, ptr %8, align 8, !tbaa !249
  %33 = load ptr, ptr %7, align 8, !tbaa !248
  %34 = getelementptr inbounds nuw %struct.FrameProgress, ptr %33, i32 0, i32 3
  %35 = call i32 @pthread_cond_signal(ptr noundef %34) #7
  br label %36

36:                                               ; preds = %23, %3
  %37 = load ptr, ptr %7, align 8, !tbaa !248
  %38 = getelementptr inbounds nuw %struct.FrameProgress, ptr %37, i32 0, i32 2
  %39 = call i32 @pthread_mutex_unlock(ptr noundef %38) #7
  br label %40

40:                                               ; preds = %43, %36
  %41 = load ptr, ptr %8, align 8, !tbaa !249
  %42 = icmp ne ptr %41, null
  br i1 %42, label %43, label %51

43:                                               ; preds = %40
  %44 = load ptr, ptr %8, align 8, !tbaa !249
  %45 = getelementptr inbounds nuw %struct.VVCProgressListener, ptr %44, i32 0, i32 2
  %46 = load ptr, ptr %45, align 8, !tbaa !251
  %47 = load ptr, ptr %8, align 8, !tbaa !249
  call void %46(ptr noundef %47)
  %48 = load ptr, ptr %8, align 8, !tbaa !249
  %49 = getelementptr inbounds nuw %struct.VVCProgressListener, ptr %48, i32 0, i32 3
  %50 = load ptr, ptr %49, align 8, !tbaa !253
  store ptr %50, ptr %8, align 8, !tbaa !249
  br label %40, !llvm.loop !254

51:                                               ; preds = %40
  call void @llvm.lifetime.end.p0(i64 8, ptr %8) #7
  call void @llvm.lifetime.end.p0(i64 8, ptr %7) #7
  ret void
}