; Function Attrs: nounwind uwtable
define void @ff_vvc_report_progress(ptr noundef readonly captures(none) %0, i32 noundef %1, i32 noundef %2) local_unnamed_addr #0 {
  %4 = getelementptr inbounds nuw i8, ptr %0, i64 88
  %5 = load ptr, ptr %4, align 8, !tbaa !149
  %6 = getelementptr inbounds nuw i8, ptr %5, i64 24
  %7 = tail call i32 @pthread_mutex_lock(ptr noundef nonnull %6) #9
  %8 = zext i32 %1 to i64
  %9 = getelementptr inbounds nuw [2 x i32], ptr %5, i64 0, i64 %8
  %10 = load atomic i32, ptr %9 seq_cst, align 4, !tbaa !118
  %11 = icmp slt i32 %10, %2
  br i1 %11, label %13, label %.thread

.thread:                                          ; preds = %3
  %12 = tail call i32 @pthread_mutex_unlock(ptr noundef nonnull %6) #9
  br label %._crit_edge

13:                                               ; preds = %3
  store atomic i32 %2, ptr %9 seq_cst, align 4, !tbaa !118
  %14 = getelementptr inbounds nuw i8, ptr %5, i64 8
  %15 = getelementptr inbounds nuw [2 x ptr], ptr %14, i64 0, i64 %8
  %16 = load ptr, ptr %15, align 8, !tbaa !236
  %.not14.i = icmp eq ptr %16, null
  br i1 %.not14.i, label %.loopexit, label %.lr.ph.i

.lr.ph.i:                                         ; preds = %13, %28
  %17 = phi ptr [ %29, %28 ], [ %16, %13 ]
  %.016.i = phi ptr [ %.1.i, %28 ], [ %15, %13 ]
  %.01115.i = phi ptr [ %.112.i, %28 ], [ null, %13 ]
  %18 = load i32, ptr %17, align 8, !tbaa !238
  %19 = zext i32 %18 to i64
  %20 = getelementptr inbounds nuw [2 x i32], ptr %5, i64 0, i64 %19
  %21 = load atomic i32, ptr %20 seq_cst, align 4, !tbaa !118
  %22 = getelementptr inbounds nuw i8, ptr %17, i64 4
  %23 = load i32, ptr %22, align 4, !tbaa !240
  %.not13.i = icmp sgt i32 %21, %23
  %24 = load ptr, ptr %.016.i, align 8, !tbaa !236
  %25 = getelementptr inbounds nuw i8, ptr %24, i64 16
  br i1 %.not13.i, label %26, label %28

26:                                               ; preds = %.lr.ph.i
  %27 = load ptr, ptr %25, align 8, !tbaa !241
  store ptr %27, ptr %.016.i, align 8, !tbaa !236
  store ptr %.01115.i, ptr %25, align 8, !tbaa !241
  br label %28

28:                                               ; preds = %26, %.lr.ph.i
  %.112.i = phi ptr [ %24, %26 ], [ %.01115.i, %.lr.ph.i ]
  %.1.i = phi ptr [ %.016.i, %26 ], [ %25, %.lr.ph.i ]
  %29 = load ptr, ptr %.1.i, align 8, !tbaa !236
  %.not.i = icmp eq ptr %29, null
  br i1 %.not.i, label %.loopexit, label %.lr.ph.i, !llvm.loop !242

.loopexit:                                        ; preds = %28, %13
  %.011.lcssa.i = phi ptr [ null, %13 ], [ %.112.i, %28 ]
  %30 = getelementptr inbounds nuw i8, ptr %5, i64 64
  %31 = tail call i32 @pthread_cond_signal(ptr noundef nonnull %30) #9
  %32 = tail call i32 @pthread_mutex_unlock(ptr noundef nonnull %6) #9
  %.not16 = icmp eq ptr %.011.lcssa.i, null
  br i1 %.not16, label %._crit_edge, label %.lr.ph

.lr.ph:                                           ; preds = %.loopexit, %.lr.ph
  %.117 = phi ptr [ %36, %.lr.ph ], [ %.011.lcssa.i, %.loopexit ]
  %33 = getelementptr inbounds nuw i8, ptr %.117, i64 8
  %34 = load ptr, ptr %33, align 8, !tbaa !243
  tail call void %34(ptr noundef nonnull %.117) #9
  %35 = getelementptr inbounds nuw i8, ptr %.117, i64 16
  %36 = load ptr, ptr %35, align 8, !tbaa !241
  %.not = icmp eq ptr %36, null
  br i1 %.not, label %._crit_edge, label %.lr.ph, !llvm.loop !244

._crit_edge:                                      ; preds = %.lr.ph, %.thread, %.loopexit
  ret void
}